; Function Attrs: mustprogress uwtable
define i32 @ucptrie_internalGetRange_77(ptr noundef readonly captures(none) %0, ptr noundef %1, i32 noundef %2, i32 noundef %3, i32 noundef %4, ptr noundef %5, ptr noundef %6, ptr noundef %7) local_unnamed_addr #0 {
  %9 = alloca i32, align 4
  %10 = alloca i32, align 4
  %11 = icmp eq i32 %3, 0
  br i1 %11, label %12, label %14

12:                                               ; preds = %8
  %13 = tail call noundef i32 %0(ptr noundef %1, i32 noundef %2, ptr noundef %5, ptr noundef %6, ptr noundef %7)
  br label %35

14:                                               ; preds = %8
  call void @llvm.lifetime.start.p0(i64 4, ptr nonnull %9) #10
  %15 = icmp eq ptr %7, null
  %spec.store.select = select i1 %15, ptr %9, ptr %7
  %16 = icmp eq i32 %3, 2
  %17 = select i1 %16, i32 57343, i32 56319
  %18 = call noundef i32 %0(ptr noundef %1, i32 noundef %2, ptr noundef %5, ptr noundef %6, ptr noundef nonnull %spec.store.select)
  %19 = icmp slt i32 %18, 55295
  %20 = icmp sgt i32 %2, %17
  %or.cond = or i1 %20, %19
  br i1 %or.cond, label %34, label %21

21:                                               ; preds = %14
  %22 = load i32, ptr %spec.store.select, align 4, !tbaa !23
  %23 = icmp eq i32 %22, %4
  br i1 %23, label %24, label %25

24:                                               ; preds = %21
  %.not = icmp samesign ult i32 %18, %17
  br i1 %.not, label %29, label %34

25:                                               ; preds = %21
  %26 = icmp slt i32 %2, 55296
  br i1 %26, label %34, label %27

27:                                               ; preds = %25
  store i32 %4, ptr %spec.store.select, align 4, !tbaa !23
  %28 = icmp samesign ugt i32 %18, %17
  br i1 %28, label %34, label %29

29:                                               ; preds = %27, %24
  call void @llvm.lifetime.start.p0(i64 4, ptr nonnull %10) #10
  %30 = add nuw nsw i32 %17, 1
  %31 = call noundef i32 %0(ptr noundef %1, i32 noundef %30, ptr noundef %5, ptr noundef %6, ptr noundef nonnull %10)
  %32 = load i32, ptr %10, align 4, !tbaa !23
  %33 = icmp eq i32 %32, %4
  %. = select i1 %33, i32 %31, i32 %17
  call void @llvm.lifetime.end.p0(i64 4, ptr nonnull %10) #10
  br label %34

34:                                               ; preds = %27, %25, %24, %14, %29
  %.1 = phi i32 [ %., %29 ], [ %18, %14 ], [ %18, %24 ], [ 55295, %25 ], [ %17, %27 ]
  call void @llvm.lifetime.end.p0(i64 4, ptr nonnull %9) #10
  br label %35

35:                                               ; preds = %34, %12
  %.0 = phi i32 [ %13, %12 ], [ %.1, %34 ]
  ret i32 %.0
}